target datalayout = "e-m:e-p270:32:32-p271:32:32-p272:64:64-i64:64-i128:128-f80:128-n8:16:32:64-S128"
target triple = "x86_64-pc-linux-gnu"

%union.pthread_mutex_t = type { %struct.__pthread_mutex_s }
%struct.__pthread_mutex_s = type { i32, i32, i32, i32, i32, i16, i16, %struct.__pthread_internal_list }
%struct.__pthread_internal_list = type { ptr, ptr }
%union.pthread_cond_t = type { %struct.__pthread_cond_s }
%struct.__pthread_cond_s = type { %union.__atomic_wide_counter, %union.__atomic_wide_counter, [2 x i32], [2 x i32], i32, i32, [2 x i32] }
%union.__atomic_wide_counter = type { i64 }
%struct.settings = type { i64, i32, i32, i32, ptr, i32, i32, i32, ptr, ptr, i32, double, i32, i32, i32, i8, i32, i32, i8, i32, i32, i32, i32, i32, i32, i8, i8, i8, i8, i8, i8, i8, i32, i32, double, double, i32, i32, i8, i32, i8, i8, ptr, i32, i32, i32, i32, double, double, i32, i8, i32, i32, i32, i32, i32, i8, i8, i8, ptr, i32, i32, i32, i32, i32, i32, i32, i32, i32, i32, double, i8, i32, i32, ptr, i32 }
%struct._logger = type { ptr, ptr, %union.pthread_mutex_t, i64, i64, i64, i16, i16, i16, ptr, ptr }
%struct.logger_watcher = type { ptr, i32, i32, i64, i64, i8, i32, i16, ptr }

@logger_stack_lock = dso_local global %union.pthread_mutex_t zeroinitializer, align 8
@logger_stack_cond = dso_local global %union.pthread_cond_t zeroinitializer, align 8
@watcher_count = dso_local global i32 0, align 4
@logger_gid = internal global i64 0, align 8
@logger_stack_head = internal global ptr null, align 8
@settings = external global %struct.settings, align 8
@watchers = dso_local global [20 x ptr] zeroinitializer, align 16
@.str.1 = private unnamed_addr constant [5 x i8] c"OK\0D\0A\00", align 1

; Function Attrs: nounwind uwtable
define internal void @logger_set_flags() #0 {
  %1 = alloca ptr, align 8
  %2 = alloca i32, align 4
  %3 = alloca i16, align 2
  %4 = alloca ptr, align 8
  %5 = alloca i32, align 4
  call void @llvm.lifetime.start.p0(i64 8, ptr %1) #11
  store ptr null, ptr %1, align 8, !tbaa !8
  call void @llvm.lifetime.start.p0(i64 4, ptr %2) #11
  store i32 0, ptr %2, align 4, !tbaa !11
  call void @llvm.lifetime.start.p0(i64 2, ptr %3) #11
  store i16 0, ptr %3, align 2, !tbaa !38
  store i32 0, ptr %2, align 4, !tbaa !11
  br label %6

6:                                                ; preds = %29, %0
  %7 = load i32, ptr %2, align 4, !tbaa !11
  %8 = icmp slt i32 %7, 20
  br i1 %8, label %9, label %32

9:                                                ; preds = %6
  call void @llvm.lifetime.start.p0(i64 8, ptr %4) #11
  %10 = load i32, ptr %2, align 4, !tbaa !11
  %11 = sext i32 %10 to i64
  %12 = getelementptr inbounds [20 x ptr], ptr @watchers, i64 0, i64 %11
  %13 = load ptr, ptr %12, align 8, !tbaa !28
  store ptr %13, ptr %4, align 8, !tbaa !28
  %14 = load ptr, ptr %4, align 8, !tbaa !28
  %15 = icmp eq ptr %14, null
  br i1 %15, label %16, label %17

16:                                               ; preds = %9
  store i32 4, ptr %5, align 4
  br label %26

17:                                               ; preds = %9
  %18 = load ptr, ptr %4, align 8, !tbaa !28
  %19 = getelementptr inbounds nuw %struct.logger_watcher, ptr %18, i32 0, i32 7
  %20 = load i16, ptr %19, align 8, !tbaa !50
  %21 = zext i16 %20 to i32
  %22 = load i16, ptr %3, align 2, !tbaa !38
  %23 = zext i16 %22 to i32
  %24 = or i32 %23, %21
  %25 = trunc i32 %24 to i16
  store i16 %25, ptr %3, align 2, !tbaa !38
  store i32 0, ptr %5, align 4
  br label %26

26:                                               ; preds = %17, %16
  call void @llvm.lifetime.end.p0(i64 8, ptr %4) #11
  %27 = load i32, ptr %5, align 4
  switch i32 %27, label %52 [
    i32 0, label %28
    i32 4, label %29
  ]

28:                                               ; preds = %26
  br label %29

29:                                               ; preds = %28, %26
  %30 = load i32, ptr %2, align 4, !tbaa !11
  %31 = add nsw i32 %30, 1
  store i32 %31, ptr %2, align 4, !tbaa !11
  br label %6, !llvm.loop !54

32:                                               ; preds = %6
  %33 = load ptr, ptr @logger_stack_head, align 8, !tbaa !8
  store ptr %33, ptr %1, align 8, !tbaa !8
  br label %34

34:                                               ; preds = %47, %32
  %35 = load ptr, ptr %1, align 8, !tbaa !8
  %36 = icmp ne ptr %35, null
  br i1 %36, label %37, label %51

37:                                               ; preds = %34
  %38 = load ptr, ptr %1, align 8, !tbaa !8
  %39 = getelementptr inbounds nuw %struct._logger, ptr %38, i32 0, i32 2
  %40 = call i32 @pthread_mutex_lock(ptr noundef %39) #11
  %41 = load i16, ptr %3, align 2, !tbaa !38
  %42 = load ptr, ptr %1, align 8, !tbaa !8
  %43 = getelementptr inbounds nuw %struct._logger, ptr %42, i32 0, i32 8
  store i16 %41, ptr %43, align 4, !tbaa !55
  %44 = load ptr, ptr %1, align 8, !tbaa !8
  %45 = getelementptr inbounds nuw %struct._logger, ptr %44, i32 0, i32 2
  %46 = call i32 @pthread_mutex_unlock(ptr noundef %45) #11
  br label %47

47:                                               ; preds = %37
  %48 = load ptr, ptr %1, align 8, !tbaa !8
  %49 = getelementptr inbounds nuw %struct._logger, ptr %48, i32 0, i32 1
  %50 = load ptr, ptr %49, align 8, !tbaa !27
  store ptr %50, ptr %1, align 8, !tbaa !8
  br label %34, !llvm.loop !56

51:                                               ; preds = %34
  store i32 1, ptr %5, align 4
  call void @llvm.lifetime.end.p0(i64 2, ptr %3) #11
  call void @llvm.lifetime.end.p0(i64 4, ptr %2) #11
  call void @llvm.lifetime.end.p0(i64 8, ptr %1) #11
  ret void

52:                                               ; preds = %26
  unreachable
}

; Function Attrs: nounwind uwtable
define dso_local i64 @logger_get_gid() #0 {
  %1 = atomicrmw add ptr @logger_gid, i64 1 seq_cst, align 8
  %2 = add i64 %1, 1
  ret i64 %2
}

; Function Attrs: nounwind uwtable
define dso_local i32 @logger_add_watcher(ptr noundef %0, i32 noundef %1, i16 noundef zeroext %2) #0 {
  %4 = alloca i32, align 4
  %5 = alloca ptr, align 8
  %6 = alloca i32, align 4
  %7 = alloca i16, align 2
  %8 = alloca i32, align 4
  %9 = alloca ptr, align 8
  %10 = alloca i32, align 4
  store ptr %0, ptr %5, align 8, !tbaa !28
  store i32 %1, ptr %6, align 4, !tbaa !11
  store i16 %2, ptr %7, align 2, !tbaa !38
  call void @llvm.lifetime.start.p0(i64 4, ptr %8) #11
  call void @llvm.lifetime.start.p0(i64 8, ptr %9) #11
  store ptr null, ptr %9, align 8, !tbaa !28
  %11 = call i32 @pthread_mutex_lock(ptr noundef @logger_stack_lock) #11
  %12 = load i32, ptr @watcher_count, align 4, !tbaa !11
  %13 = icmp sge i32 %12, 20
  br i1 %13, label %14, label %16

14:                                               ; preds = %3
  %15 = call i32 @pthread_mutex_unlock(ptr noundef @logger_stack_lock) #11
  store i32 0, ptr %4, align 4
  store i32 1, ptr %10, align 4
  br label %89

16:                                               ; preds = %3
  store i32 0, ptr %8, align 4, !tbaa !11
  br label %17

17:                                               ; preds = %28, %16
  %18 = load i32, ptr %8, align 4, !tbaa !11
  %19 = icmp slt i32 %18, 19
  br i1 %19, label %20, label %31

20:                                               ; preds = %17
  %21 = load i32, ptr %8, align 4, !tbaa !11
  %22 = sext i32 %21 to i64
  %23 = getelementptr inbounds [20 x ptr], ptr @watchers, i64 0, i64 %22
  %24 = load ptr, ptr %23, align 8, !tbaa !28
  %25 = icmp eq ptr %24, null
  br i1 %25, label %26, label %27

26:                                               ; preds = %20
  br label %31

27:                                               ; preds = %20
  br label %28

28:                                               ; preds = %27
  %29 = load i32, ptr %8, align 4, !tbaa !11
  %30 = add nsw i32 %29, 1
  store i32 %30, ptr %8, align 4, !tbaa !11
  br label %17, !llvm.loop !43

31:                                               ; preds = %26, %17
  %32 = call noalias ptr @calloc(i64 noundef 1, i64 noundef 56) #13
  store ptr %32, ptr %9, align 8, !tbaa !28
  %33 = load ptr, ptr %9, align 8, !tbaa !28
  %34 = icmp eq ptr %33, null
  br i1 %34, label %35, label %37

35:                                               ; preds = %31
  %36 = call i32 @pthread_mutex_unlock(ptr noundef @logger_stack_lock) #11
  store i32 2, ptr %4, align 4
  store i32 1, ptr %10, align 4
  br label %89

37:                                               ; preds = %31
  %38 = load ptr, ptr %5, align 8, !tbaa !28
  %39 = load ptr, ptr %9, align 8, !tbaa !28
  %40 = getelementptr inbounds nuw %struct.logger_watcher, ptr %39, i32 0, i32 0
  store ptr %38, ptr %40, align 8, !tbaa !45
  %41 = load i32, ptr %6, align 4, !tbaa !11
  %42 = load ptr, ptr %9, align 8, !tbaa !28
  %43 = getelementptr inbounds nuw %struct.logger_watcher, ptr %42, i32 0, i32 1
  store i32 %41, ptr %43, align 8, !tbaa !47
  %44 = load i32, ptr %6, align 4, !tbaa !11
  %45 = icmp eq i32 %44, 0
  br i1 %45, label %46, label %52

46:                                               ; preds = %37
  %47 = load ptr, ptr %5, align 8, !tbaa !28
  %48 = icmp eq ptr %47, null
  br i1 %48, label %49, label %52

49:                                               ; preds = %46
  %50 = load ptr, ptr %9, align 8, !tbaa !28
  %51 = getelementptr inbounds nuw %struct.logger_watcher, ptr %50, i32 0, i32 6
  store i32 0, ptr %51, align 4, !tbaa !48
  br label %55

52:                                               ; preds = %46, %37
  %53 = load ptr, ptr %9, align 8, !tbaa !28
  %54 = getelementptr inbounds nuw %struct.logger_watcher, ptr %53, i32 0, i32 6
  store i32 1, ptr %54, align 4, !tbaa !48
  br label %55

55:                                               ; preds = %52, %49
  %56 = load i32, ptr %8, align 4, !tbaa !11
  %57 = load ptr, ptr %9, align 8, !tbaa !28
  %58 = getelementptr inbounds nuw %struct.logger_watcher, ptr %57, i32 0, i32 2
  store i32 %56, ptr %58, align 4, !tbaa !49
  %59 = load i16, ptr %7, align 2, !tbaa !38
  %60 = load ptr, ptr %9, align 8, !tbaa !28
  %61 = getelementptr inbounds nuw %struct.logger_watcher, ptr %60, i32 0, i32 7
  store i16 %59, ptr %61, align 8, !tbaa !50
  %62 = call i64 @logger_get_gid()
  %63 = load ptr, ptr %9, align 8, !tbaa !28
  %64 = getelementptr inbounds nuw %struct.logger_watcher, ptr %63, i32 0, i32 4
  store i64 %62, ptr %64, align 8, !tbaa !51
  %65 = load i32, ptr getelementptr inbounds nuw (%struct.settings, ptr @settings, i32 0, i32 53), align 8, !tbaa !52
  %66 = call ptr @bipbuf_new(i32 noundef %65)
  %67 = load ptr, ptr %9, align 8, !tbaa !28
  %68 = getelementptr inbounds nuw %struct.logger_watcher, ptr %67, i32 0, i32 8
  store ptr %66, ptr %68, align 8, !tbaa !53
  %69 = load ptr, ptr %9, align 8, !tbaa !28
  %70 = getelementptr inbounds nuw %struct.logger_watcher, ptr %69, i32 0, i32 8
  %71 = load ptr, ptr %70, align 8, !tbaa !53
  %72 = icmp eq ptr %71, null
  br i1 %72, label %73, label %76

73:                                               ; preds = %55
  %74 = load ptr, ptr %9, align 8, !tbaa !28
  call void @free(ptr noundef %74) #11
  %75 = call i32 @pthread_mutex_unlock(ptr noundef @logger_stack_lock) #11
  store i32 2, ptr %4, align 4
  store i32 1, ptr %10, align 4
  br label %89

76:                                               ; preds = %55
  %77 = load ptr, ptr %9, align 8, !tbaa !28
  %78 = getelementptr inbounds nuw %struct.logger_watcher, ptr %77, i32 0, i32 8
  %79 = load ptr, ptr %78, align 8, !tbaa !53
  %80 = call i32 @bipbuf_offer(ptr noundef %79, ptr noundef @.str.1, i32 noundef 4)
  %81 = load ptr, ptr %9, align 8, !tbaa !28
  %82 = load i32, ptr %8, align 4, !tbaa !11
  %83 = sext i32 %82 to i64
  %84 = getelementptr inbounds [20 x ptr], ptr @watchers, i64 0, i64 %83
  store ptr %81, ptr %84, align 8, !tbaa !28
  %85 = load i32, ptr @watcher_count, align 4, !tbaa !11
  %86 = add nsw i32 %85, 1
  store i32 %86, ptr @watcher_count, align 4, !tbaa !11
  call void @logger_set_flags()
  %87 = call i32 @pthread_cond_signal(ptr noundef @logger_stack_cond) #11
  %88 = call i32 @pthread_mutex_unlock(ptr noundef @logger_stack_lock) #11
  store i32 1, ptr %4, align 4
  store i32 1, ptr %10, align 4
  br label %89

89:                                               ; preds = %76, %73, %35, %14
  call void @llvm.lifetime.end.p0(i64 8, ptr %9) #11
  call void @llvm.lifetime.end.p0(i64 4, ptr %8) #11
  %90 = load i32, ptr %4, align 4
  ret i32 %90
}