; Function Attrs: nounwind uwtable
define dso_local range(i32 0, 3) i32 @logger_add_watcher(ptr noundef %0, i32 noundef %1, i16 noundef zeroext %2) local_unnamed_addr #1 {
  %4 = tail call i32 @pthread_mutex_lock(ptr noundef nonnull @logger_stack_lock) #18
  %5 = load i32, ptr @watcher_count, align 4, !tbaa !9
  %6 = icmp sgt i32 %5, 19
  br i1 %6, label %50, label %.preheader

.preheader:                                       ; preds = %3, %10
  %indvars.iv = phi i64 [ %indvars.iv.next, %10 ], [ 0, %3 ]
  %7 = getelementptr inbounds nuw [20 x ptr], ptr @watchers, i64 0, i64 %indvars.iv
  %8 = load ptr, ptr %7, align 8, !tbaa !36
  %9 = icmp eq ptr %8, null
  br i1 %9, label %.split.loop.exit, label %10

10:                                               ; preds = %.preheader
  %indvars.iv.next = add nuw nsw i64 %indvars.iv, 1
  %exitcond.not = icmp eq i64 %indvars.iv.next, 19
  br i1 %exitcond.not, label %.split.loop.exit29, label %.preheader, !llvm.loop !37

.split.loop.exit:                                 ; preds = %.preheader
  %11 = trunc nuw nsw i64 %indvars.iv to i32
  br label %.split.loop.exit29

.split.loop.exit29:                               ; preds = %10, %.split.loop.exit
  %.0.lcssa = phi i32 [ %11, %.split.loop.exit ], [ 19, %10 ]
  %12 = tail call noalias dereferenceable_or_null(56) ptr @calloc(i64 noundef 1, i64 noundef 56) #21
  %13 = icmp eq ptr %12, null
  br i1 %13, label %50, label %14

14:                                               ; preds = %.split.loop.exit29
  store ptr %0, ptr %12, align 8, !tbaa !39
  %15 = getelementptr inbounds nuw i8, ptr %12, i64 8
  store i32 %1, ptr %15, align 8, !tbaa !41
  %16 = icmp ne i32 %1, 0
  %17 = icmp ne ptr %0, null
  %or.cond.not = or i1 %17, %16
  %spec.select = zext i1 %or.cond.not to i32
  %18 = getelementptr inbounds nuw i8, ptr %12, i64 36
  store i32 %spec.select, ptr %18, align 4, !tbaa !42
  %19 = getelementptr inbounds nuw i8, ptr %12, i64 12
  store i32 %.0.lcssa, ptr %19, align 4, !tbaa !43
  %20 = getelementptr inbounds nuw i8, ptr %12, i64 40
  store i16 %2, ptr %20, align 8, !tbaa !44
  %21 = atomicrmw add ptr @logger_gid, i64 1 seq_cst, align 8
  %22 = add i64 %21, 1
  %23 = getelementptr inbounds nuw i8, ptr %12, i64 24
  store i64 %22, ptr %23, align 8, !tbaa !45
  %24 = load i32, ptr getelementptr inbounds nuw (i8, ptr @settings, i64 248), align 8, !tbaa !46
  %25 = tail call ptr @bipbuf_new(i32 noundef %24) #18
  %26 = getelementptr inbounds nuw i8, ptr %12, i64 48
  store ptr %25, ptr %26, align 8, !tbaa !47
  %27 = icmp eq ptr %25, null
  br i1 %27, label %28, label %29

28:                                               ; preds = %14
  tail call void @free(ptr noundef nonnull %12) #18
  br label %50

29:                                               ; preds = %14
  %30 = tail call i32 @bipbuf_offer(ptr noundef nonnull %25, ptr noundef nonnull @.str.1, i32 noundef 4) #18
  %31 = zext nneg i32 %.0.lcssa to i64
  %32 = getelementptr inbounds nuw [20 x ptr], ptr @watchers, i64 0, i64 %31
  store ptr %12, ptr %32, align 8, !tbaa !36
  %33 = load i32, ptr @watcher_count, align 4, !tbaa !9
  %34 = add nsw i32 %33, 1
  store i32 %34, ptr @watcher_count, align 4, !tbaa !9
  br label %35

.preheader.i:                                     ; preds = %43
  %.016.i = load ptr, ptr @logger_stack_head, align 8, !tbaa !4
  %.not17.i = icmp eq ptr %.016.i, null
  br i1 %.not17.i, label %logger_set_flags.exit, label %.lr.ph.i

35:                                               ; preds = %43, %29
  %indvars.iv.i = phi i64 [ 0, %29 ], [ %indvars.iv.next.i, %43 ]
  %.01115.i = phi i16 [ 0, %29 ], [ %.1.i, %43 ]
  %36 = getelementptr inbounds nuw [20 x ptr], ptr @watchers, i64 0, i64 %indvars.iv.i
  %37 = load ptr, ptr %36, align 8, !tbaa !36
  %38 = icmp eq ptr %37, null
  br i1 %38, label %43, label %39

39:                                               ; preds = %35
  %40 = getelementptr inbounds nuw i8, ptr %37, i64 40
  %41 = load i16, ptr %40, align 8, !tbaa !44
  %42 = or i16 %41, %.01115.i
  br label %43

43:                                               ; preds = %39, %35
  %.1.i = phi i16 [ %42, %39 ], [ %.01115.i, %35 ]
  %indvars.iv.next.i = add nuw nsw i64 %indvars.iv.i, 1
  %exitcond.not.i = icmp eq i64 %indvars.iv.next.i, 20
  br i1 %exitcond.not.i, label %.preheader.i, label %35, !llvm.loop !48

.lr.ph.i:                                         ; preds = %.preheader.i, %.lr.ph.i
  %.018.i = phi ptr [ %.0.i, %.lr.ph.i ], [ %.016.i, %.preheader.i ]
  %44 = getelementptr inbounds nuw i8, ptr %.018.i, i64 16
  %45 = tail call i32 @pthread_mutex_lock(ptr noundef nonnull %44) #18
  %46 = getelementptr inbounds nuw i8, ptr %.018.i, i64 84
  store i16 %.1.i, ptr %46, align 4, !tbaa !49
  %47 = tail call i32 @pthread_mutex_unlock(ptr noundef nonnull %44) #18
  %48 = getelementptr inbounds nuw i8, ptr %.018.i, i64 8
  %.0.i = load ptr, ptr %48, align 8, !tbaa !4
  %.not.i = icmp eq ptr %.0.i, null
  br i1 %.not.i, label %logger_set_flags.exit, label %.lr.ph.i, !llvm.loop !50

logger_set_flags.exit:                            ; preds = %.lr.ph.i, %.preheader.i
  %49 = tail call i32 @pthread_cond_signal(ptr noundef nonnull @logger_stack_cond) #18
  br label %50

50:                                               ; preds = %.split.loop.exit29, %3, %logger_set_flags.exit, %28
  %.024 = phi i32 [ 2, %28 ], [ 1, %logger_set_flags.exit ], [ 0, %3 ], [ 2, %.split.loop.exit29 ]
  %51 = tail call i32 @pthread_mutex_unlock(ptr noundef nonnull @logger_stack_lock) #18
  ret i32 %.024
}